; ModuleID = 'source-C-CXX/25/840.c'
source_filename = "source-C-CXX/25/840.c"
target datalayout = "e-m:e-p270:32:32-p271:32:32-p272:64:64-i64:64-f80:128-n8:16:32:64-S128"
target triple = "x86_64-pc-linux-gnu"

; Function Attrs: nounwind sspstrong uwtable
define dso_local i32 @main() local_unnamed_addr #0 {
  %1 = alloca [101 x i8], align 16
  %2 = alloca [101 x i8], align 16
  %3 = getelementptr inbounds [101 x i8], [101 x i8]* %1, i64 0, i64 0
  call void @llvm.lifetime.start.p0i8(i64 101, i8* nonnull %3) #5
  %4 = getelementptr inbounds [101 x i8], [101 x i8]* %2, i64 0, i64 0
  call void @llvm.lifetime.start.p0i8(i64 101, i8* nonnull %4) #5
  %5 = call i32 (i8*, ...) bitcast (i32 (...)* @gets to i32 (i8*, ...)*)(i8* nonnull %3) #5
  %6 = call i64 @strlen(i8* noundef nonnull %3) #6
  %7 = trunc i64 %6 to i32
  %8 = add nsw i32 %7, -1
  %9 = icmp sgt i32 %7, 0
  br i1 %9, label %10, label %35

10:                                               ; preds = %0, %32
  %11 = phi i64 [ %28, %32 ], [ 0, %0 ]
  %12 = phi i32 [ %33, %32 ], [ 0, %0 ]
  %13 = sext i32 %12 to i64
  %14 = getelementptr inbounds [101 x i8], [101 x i8]* %1, i64 0, i64 %13
  %15 = load i8, i8* %14, align 1, !tbaa !5
  br label %16

16:                                               ; preds = %10, %20
  %17 = phi i8 [ %15, %10 ], [ 32, %20 ]
  %18 = phi i64 [ %13, %10 ], [ %21, %20 ]
  %19 = icmp eq i8 %17, 32
  br i1 %19, label %20, label %25

20:                                               ; preds = %16
  %21 = add i64 %18, 1
  %22 = getelementptr inbounds [101 x i8], [101 x i8]* %1, i64 0, i64 %21
  %23 = load i8, i8* %22, align 1, !tbaa !5
  %24 = icmp eq i8 %23, 32
  br i1 %24, label %16, label %25, !llvm.loop !8

25:                                               ; preds = %16, %20
  %26 = trunc i64 %18 to i32
  %27 = getelementptr inbounds [101 x i8], [101 x i8]* %2, i64 0, i64 %11
  store i8 %17, i8* %27, align 1, !tbaa !5
  %28 = add nuw i64 %11, 1
  %29 = icmp eq i32 %8, %26
  br i1 %29, label %30, label %32

30:                                               ; preds = %25
  %31 = getelementptr inbounds [101 x i8], [101 x i8]* %2, i64 0, i64 %28
  store i8 0, i8* %31, align 1, !tbaa !5
  br label %32

32:                                               ; preds = %25, %30
  %33 = add nsw i32 %26, 1
  %34 = icmp slt i32 %33, %7
  br i1 %34, label %10, label %35, !llvm.loop !10

35:                                               ; preds = %32, %0
  %36 = call i64 @strlen(i8* noundef nonnull %4) #6
  %37 = trunc i64 %36 to i32
  %38 = icmp sgt i32 %37, 0
  br i1 %38, label %39, label %49

39:                                               ; preds = %35
  %40 = and i64 %36, 4294967295
  br label %41

41:                                               ; preds = %39, %41
  %42 = phi i64 [ 0, %39 ], [ %47, %41 ]
  %43 = getelementptr inbounds [101 x i8], [101 x i8]* %2, i64 0, i64 %42
  %44 = load i8, i8* %43, align 1, !tbaa !5
  %45 = sext i8 %44 to i32
  %46 = call i32 @putchar(i32 %45)
  %47 = add nuw nsw i64 %42, 1
  %48 = icmp eq i64 %47, %40
  br i1 %48, label %49, label %41, !llvm.loop !11

49:                                               ; preds = %41, %35
  call void @llvm.lifetime.end.p0i8(i64 101, i8* nonnull %4) #5
  call void @llvm.lifetime.end.p0i8(i64 101, i8* nonnull %3) #5
  ret i32 0
}

; Function Attrs: argmemonly mustprogress nofree nosync nounwind willreturn
declare void @llvm.lifetime.start.p0i8(i64 immarg, i8* nocapture) #1

declare i32 @gets(...) local_unnamed_addr #2

; Function Attrs: argmemonly mustprogress nofree nounwind readonly willreturn
declare i64 @strlen(i8* nocapture) local_unnamed_addr #3

; Function Attrs: argmemonly mustprogress nofree nosync nounwind willreturn
declare void @llvm.lifetime.end.p0i8(i64 immarg, i8* nocapture) #1

; Function Attrs: nofree nounwind
declare noundef i32 @putchar(i32 noundef) local_unnamed_addr #4


!llvm.module.flags = !{!0, !1, !2, !3}
!llvm.ident = !{!4}

!0 = !{i32 1, !"wchar_size", i32 4}
!1 = !{i32 7, !"PIC Level", i32 2}
!2 = !{i32 7, !"PIE Level", i32 2}
!3 = !{i32 7, !"uwtable", i32 1}
!4 = !{!"clang version 13.0.0"}
!5 = !{!6, !6, i64 0}
!6 = !{!"omnipotent char", !7, i64 0}
!7 = !{!"Simple C/C++ TBAA"}
!8 = distinct !{!8, !9}
!9 = !{!"llvm.loop.mustprogress"}
!10 = distinct !{!10, !9}
!11 = distinct !{!11, !9}
